; Function Attrs: nounwind uwtable
define zeroext i8 @l_Lean_Meta_Grind_CasesTypes_isEagerSplit(ptr noundef %0, ptr noundef %1) local_unnamed_addr #1 {
  %3 = tail call i64 @l_Lean_Name_hash___override(ptr noundef %1) #6
  %4 = tail call ptr @l_Lean_PersistentHashMap_findAux___at_Lean_Meta_Grind_CasesTypes_find_x3f___spec__2(ptr noundef %0, i64 noundef %3, ptr noundef %1)
  %5 = ptrtoint ptr %4 to i64
  %6 = and i64 %5, 1
  %.not.i19 = icmp eq i64 %6, 0
  br i1 %.not.i19, label %10, label %7

7:                                                ; preds = %2
  %8 = lshr i64 %5, 1
  %9 = trunc i64 %8 to i32
  br label %lean_obj_tag.exit

10:                                               ; preds = %2
  %11 = getelementptr i8, ptr %4, i64 4
  %.val.i = load i32, ptr %11, align 4
  %12 = lshr i32 %.val.i, 24
  br label %lean_obj_tag.exit

lean_obj_tag.exit:                                ; preds = %7, %10
  %.0.i = phi i32 [ %9, %7 ], [ %12, %10 ]
  %13 = icmp eq i32 %.0.i, 0
  br i1 %13, label %.sink.split, label %14

14:                                               ; preds = %lean_obj_tag.exit
  %15 = getelementptr inbounds nuw i8, ptr %4, i64 8
  %16 = load ptr, ptr %15, align 8, !tbaa !9
  %17 = ptrtoint ptr %16 to i64
  %18 = and i64 %17, 1
  %.not = icmp eq i64 %18, 0
  br i1 %.not, label %19, label %lean_inc.exit

19:                                               ; preds = %14
  %.val.i20 = load i32, ptr %16, align 4, !tbaa !4
  %20 = icmp sgt i32 %.val.i20, 0
  br i1 %20, label %21, label %23, !prof !11

21:                                               ; preds = %19
  %22 = add nuw i32 %.val.i20, 1
  store i32 %22, ptr %16, align 4, !tbaa !4
  br label %lean_inc.exit

23:                                               ; preds = %19
  %.not.i21 = icmp eq i32 %.val.i20, 0
  br i1 %.not.i21, label %lean_inc.exit, label %24

24:                                               ; preds = %23
  tail call void @lean_inc_ref_cold(ptr noundef nonnull %16) #6
  br label %lean_inc.exit

lean_inc.exit:                                    ; preds = %24, %23, %21, %14
  br i1 %.not.i19, label %25, label %lean_dec.exit16

25:                                               ; preds = %lean_inc.exit
  %26 = load i32, ptr %4, align 4, !tbaa !4
  %27 = icmp sgt i32 %26, 1
  br i1 %27, label %28, label %30, !prof !11

28:                                               ; preds = %25
  %29 = add nsw i32 %26, -1
  store i32 %29, ptr %4, align 4, !tbaa !4
  br label %lean_dec.exit16

30:                                               ; preds = %25
  %.not.i = icmp eq i32 %26, 0
  br i1 %.not.i, label %lean_dec.exit16, label %31

31:                                               ; preds = %30
  tail call void @lean_dec_ref_cold(ptr noundef nonnull %4) #6
  br label %lean_dec.exit16

lean_dec.exit16:                                  ; preds = %31, %30, %28, %lean_inc.exit
  br i1 %.not, label %32, label %lean_dec.exit

32:                                               ; preds = %lean_dec.exit16
  %33 = load i32, ptr %16, align 4, !tbaa !4
  %34 = icmp sgt i32 %33, 1
  br i1 %34, label %35, label %37, !prof !11

35:                                               ; preds = %32
  %36 = add nsw i32 %33, -1
  store i32 %36, ptr %16, align 4, !tbaa !4
  br label %lean_dec.exit

37:                                               ; preds = %32
  %.not.i17 = icmp eq i32 %33, 0
  br i1 %.not.i17, label %lean_dec.exit, label %38

38:                                               ; preds = %37
  tail call void @lean_dec_ref_cold(ptr noundef nonnull %16) #6
  br label %lean_dec.exit

lean_dec.exit:                                    ; preds = %38, %37, %35, %lean_dec.exit16
  %39 = and i64 %17, 510
  %40 = icmp eq i64 %39, 0
  br i1 %40, label %.sink.split, label %43

.sink.split:                                      ; preds = %lean_dec.exit, %lean_obj_tag.exit
  %41 = load ptr, ptr @l___private_Lean_Meta_Tactic_Grind_Cases_0__Lean_Meta_Grind_builtinEagerCases, align 8, !tbaa !9
  %42 = tail call zeroext i8 @l_Lean_NameSet_contains(ptr noundef %41, ptr noundef %1) #6
  br label %43

43:                                               ; preds = %.sink.split, %lean_dec.exit
  %.0 = phi i8 [ 1, %lean_dec.exit ], [ %42, %.sink.split ]
  ret i8 %.0
}